target datalayout = "e-m:e-p270:32:32-p271:32:32-p272:64:64-i64:64-i128:128-f80:128-n8:16:32:64-S128"
target triple = "x86_64-pc-linux-gnu"

%struct.STEAM_RemoteStorage = type { ptr, ptr, ptr, ptr, ptr, ptr, ptr, ptr, ptr, ptr }

@.str.21 = private unnamed_addr constant [31 x i8] c"SteamRemoteStorage unavailable\00", align 1
@.str.30 = private unnamed_addr constant [38 x i8] c"SteamRemoteStorage()->GetQuota failed\00", align 1

; Function Attrs: nounwind uwtable
define internal i64 @STEAM_GetStorageSpaceRemaining(ptr noundef %0) #0 {
  %2 = alloca i64, align 8
  %3 = alloca ptr, align 8
  %4 = alloca i64, align 8
  %5 = alloca i64, align 8
  %6 = alloca ptr, align 8
  %7 = alloca ptr, align 8
  %8 = alloca i32, align 4
  store ptr %0, ptr %3, align 8
  call void @llvm.lifetime.start.p0(i64 8, ptr %4) #4
  call void @llvm.lifetime.start.p0(i64 8, ptr %5) #4
  call void @llvm.lifetime.start.p0(i64 8, ptr %6) #4
  %9 = load ptr, ptr %3, align 8
  store ptr %9, ptr %6, align 8
  call void @llvm.lifetime.start.p0(i64 8, ptr %7) #4
  %10 = load ptr, ptr %6, align 8
  %11 = getelementptr inbounds nuw %struct.STEAM_RemoteStorage, ptr %10, i32 0, i32 1
  %12 = load ptr, ptr %11, align 8
  %13 = call ptr %12()
  store ptr %13, ptr %7, align 8
  %14 = load ptr, ptr %7, align 8
  %15 = icmp eq ptr %14, null
  br i1 %15, label %16, label %18

16:                                               ; preds = %1
  %17 = call zeroext i1 (ptr, ...) @SDL_SetError_REAL(ptr noundef @.str.21)
  store i64 0, ptr %2, align 8
  store i32 1, ptr %8, align 4
  br label %28

18:                                               ; preds = %1
  %19 = load ptr, ptr %6, align 8
  %20 = getelementptr inbounds nuw %struct.STEAM_RemoteStorage, ptr %19, i32 0, i32 9
  %21 = load ptr, ptr %20, align 8
  %22 = load ptr, ptr %7, align 8
  %23 = call zeroext i1 %21(ptr noundef %22, ptr noundef %4, ptr noundef %5)
  br i1 %23, label %26, label %24

24:                                               ; preds = %18
  %25 = call zeroext i1 (ptr, ...) @SDL_SetError_REAL(ptr noundef @.str.30)
  store i64 0, ptr %2, align 8
  store i32 1, ptr %8, align 4
  br label %28

26:                                               ; preds = %18
  %27 = load i64, ptr %5, align 8
  store i64 %27, ptr %2, align 8
  store i32 1, ptr %8, align 4
  br label %28

28:                                               ; preds = %26, %24, %16
  call void @llvm.lifetime.end.p0(i64 8, ptr %7) #4
  call void @llvm.lifetime.end.p0(i64 8, ptr %6) #4
  call void @llvm.lifetime.end.p0(i64 8, ptr %5) #4
  call void @llvm.lifetime.end.p0(i64 8, ptr %4) #4
  %29 = load i64, ptr %2, align 8
  ret i64 %29
}