; Function Attrs: nounwind uwtable
define internal i64 @STEAM_GetStorageSpaceRemaining(ptr noundef readonly captures(none) %0) #0 {
  %2 = alloca i64, align 8
  %3 = alloca i64, align 8
  call void @llvm.lifetime.start.p0(i64 8, ptr nonnull %2) #5
  call void @llvm.lifetime.start.p0(i64 8, ptr nonnull %3) #5
  %4 = getelementptr inbounds nuw i8, ptr %0, i64 8
  %5 = load ptr, ptr %4, align 8
  %6 = tail call ptr %5() #5
  %7 = icmp eq ptr %6, null
  br i1 %7, label %8, label %10

8:                                                ; preds = %1
  %9 = tail call zeroext i1 (ptr, ...) @SDL_SetError_REAL(ptr noundef nonnull @.str.21) #5
  br label %18

10:                                               ; preds = %1
  %11 = getelementptr inbounds nuw i8, ptr %0, i64 72
  %12 = load ptr, ptr %11, align 8
  %13 = call zeroext i1 %12(ptr noundef nonnull %6, ptr noundef nonnull %2, ptr noundef nonnull %3) #5
  br i1 %13, label %16, label %14

14:                                               ; preds = %10
  %15 = call zeroext i1 (ptr, ...) @SDL_SetError_REAL(ptr noundef nonnull @.str.30) #5
  br label %18

16:                                               ; preds = %10
  %17 = load i64, ptr %3, align 8
  br label %18

18:                                               ; preds = %16, %14, %8
  %.0 = phi i64 [ 0, %8 ], [ %17, %16 ], [ 0, %14 ]
  call void @llvm.lifetime.end.p0(i64 8, ptr nonnull %3) #5
  call void @llvm.lifetime.end.p0(i64 8, ptr nonnull %2) #5
  ret i64 %.0
}